Certificate:
    Data:
        Version: 1 (0x0)
        Serial Number: 1 (0x1)
    Signature Algorithm: sha256WithRSAEncryption
        Issuer: C=SE, ST=Some-State, L=Umea, O=Internet Widgits Pty Ltd, OU=TestHTTP2
        Validity
            Not Before: Jan 13 20:43:14 2015 GMT
            Not After : Dec 26 20:43:14 2025 GMT
        Subject: C=SE, ST=Some-State, O=Internet Widgits Pty Ltd, CN=*.httpdos.com
        Subject Public Key Info:
            Public Key Algorithm: rsaEncryption
                Public-Key: (2048 bit)
                Modulus:
                    00:d8:47:f8:3a:5b:64:a9:8c:1f:dd:99:4a:70:46:
                    90:6d:78:4c:8b:fa:a3:ad:08:a2:07:d8:1b:9c:74:
                    9e:e3:b3:a0:42:ac:b8:76:20:8d:2f:c9:20:81:eb:
                    3d:d5:e5:4d:c8:5f:ee:88:ee:52:e5:4f:34:0e:59:
                    d8:28:15:36:3b:4a:66:24:77:70:63:00:2e:1f:10:
                    a2:9d:59:d1:8a:6c:b0:ea:4a:c9:6c:42:64:9a:b0:
                    cf:f5:59:55:29:fe:a0:94:31:5e:8c:41:4b:ab:10:
                    be:6e:99:e2:71:0a:a0:48:b1:ca:09:87:40:a3:2d:
                    47:6d:91:26:9a:d4:e6:9e:44:81:38:c5:7c:c1:a1:
                    ad:81:62:e4:cf:0e:60:19:ab:4e:4f:85:06:4b:a4:
                    7a:25:e9:3b:0c:f6:8c:24:4a:2d:b5:9a:65:4c:a8:
                    26:f8:e9:8d:82:33:d2:48:53:78:fb:b3:5f:7e:47:
                    8d:b4:58:0e:d0:f0:54:c1:36:dc:54:37:4a:bc:26:
                    7a:eb:9f:bb:26:fd:a7:60:38:e4:9b:12:6c:70:21:
                    e3:e7:2f:07:85:b3:ff:ac:a6:f0:3c:91:55:e1:89:
                    44:09:08:34:bd:8c:90:ff:8a:fb:a5:f3:dd:cb:34:
                    e9:b8:cd:89:47:65:9a:5c:79:eb:27:92:26:07:bf:
                    8e:83
                Exponent: 65537 (0x10001)
    Signature Algorithm: sha256WithRSAEncryption
         0c:00:c6:1a:bb:f9:b5:f8:08:1a:fe:6c:78:42:92:94:30:b4:
         85:70:11:8c:c5:62:60:0b:50:d7:71:9d:d3:b4:5b:4e:4a:89:
         42:80:e5:5b:a7:13:1c:02:5f:21:2a:52:19:7b:0f:9b:7b:38:
         55:cc:bd:ca:65:a3:9c:4e:99:ed:c1:24:a8:68:bd:12:11:8a:
         64:53:76:b0:f1:e0:de:10:e8:ee:af:28:ca:83:43:b1:c0:d0:
         74:e9:ff:2c:61:75:e2:d0:a4:6f:37:69:1e:fa:e6:2a:fd:9e:
         0e:e8:46:5d:b4:65:0d:c1:de:f5:8f:df:0e:24:d9:3d:1a:04:
         56:f7:48:33:24:25:d0:bc:ef:99:87:fe:72:f6:18:50:eb:ae:
         6f:93:67:6d:ff:51:e2:8a:bb:d3:13:cf:54:a4:09:68:3f:0e:
         5b:d5:5c:38:dd:e5:eb:1e:61:5f:6c:ad:fb:53:26:85:c4:d7:
         68:e9:98:25:47:4a:dd:5d:14:85:60:fb:4f:1f:ff:96:f0:74:
         7d:51:f7:a3:34:02:da:0b:30:3c:86:4d:d2:63:37:b2:24:31:
         38:0f:69:e1:4a:d8:f3:6e:27:2f:ea:ff:d6:06:b2:44:08:f4:
         36:b3:73:88:15:20:9c:42:b5:18:ea:98:49:b4:09:02:10:56:
         7a:de:7f:c6
-----BEGIN CERTIFICATE-----
MIIDOTCCAiECAQEwDQYJKoZIhvcNAQELBQAwaDELMAkGA1UEBhMCU0UxEzARBgNV
BAgMClNvbWUtU3RhdGUxDTALBgNVBAcMBFVtZWExITAfBgNVBAoMGEludGVybmV0
IFdpZGdpdHMgUHR5IEx0ZDESMBAGA1UECwwJVGVzdEhUVFAyMB4XDTE1MDExMzIw
NDMxNFoXDTI1MTIyNjIwNDMxNFowXTELMAkGA1UEBhMCU0UxEzARBgNVBAgMClNv
bWUtU3RhdGUxITAfBgNVBAoMGEludGVybmV0IFdpZGdpdHMgUHR5IEx0ZDEWMBQG
A1UEAwwNKi5odHRwZG9zLmNvbTCCASIwDQYJKoZIhvcNAQEBBQADggEPADCCAQoC
ggEBANhH+DpbZKmMH92ZSnBGkG14TIv6o60IogfYG5x0nuOzoEKsuHYgjS/JIIHr
PdXlTchf7ojuUuVPNA5Z2CgVNjtKZiR3cGMALh8Qop1Z0YpssOpKyWxCZJqwz/VZ
VSn+oJQxXoxBS6sQvm6Z4nEKoEixygmHQKMtR22RJprU5p5EgTjFfMGhrYFi5M8O
YBmrTk+FBkukeiXpOwz2jCRKLbWaZUyoJvjpjYIz0khTePuzX35HjbRYDtDwVME2
3FQ3Srwmeuufuyb9p2A45JsSbHAh4+cvB4Wz/6ym8DyRVeGJRAkINL2MkP+K+6Xz
3cs06bjNiUdlmlx56yeSJge/joMCAwEAATANBgkqhkiG9w0BAQsFAAOCAQEADADG
Grv5tfgIGv5seEKSlDC0hXARjMViYAtQ13Gd07RbTkqJQoDlW6cTHAJfISpSGXsP
m3s4Vcy9ymWjnE6Z7cEkqGi9EhGKZFN2sPHg3hDo7q8oyoNDscDQdOn/LGF14tCk
bzdpHvrmKv2eDuhGXbRlDcHe9Y/fDiTZPRoEVvdIMyQl0LzvmYf+cvYYUOuub5Nn
bf9R4oq70xPPVKQJaD8OW9VcON3l6x5hX2yt+1MmhcTXaOmYJUdK3V0UhWD7Tx//
lvB0fVH3ozQC2gswPIZN0mM3siQxOA9p4UrY824nL+r/1gayRAj0NrNziBUgnEK1
GOqYSbQJAhBWet5/xg==
-----END CERTIFICATE-----
